; Function Attrs: mustprogress nofree norecurse nosync nounwind willreturn memory(argmem: write) uwtable
define void @wolfSSL_CTX_set_servername_callback(ptr noundef writeonly captures(address_is_null) %0, ptr noundef %1) local_unnamed_addr #5 {
  %.not = icmp eq ptr %0, null
  br i1 %.not, label %5, label %3

3:                                                ; preds = %2
  %4 = getelementptr inbounds nuw i8, ptr %0, i64 264
  store ptr %1, ptr %4, align 8, !tbaa !264
  br label %5

5:                                                ; preds = %3, %2
  ret void
}